target datalayout = "e-m:e-p270:32:32-p271:32:32-p272:64:64-i64:64-i128:128-f80:128-n8:16:32:64-S128"
target triple = "x86_64-unknown-linux-gnu"

; Function Attrs: nounwind uwtable
define dso_local i32 @is_hex_digit(i8 noundef signext %c) #0 {
entry:
  %c.addr = alloca i8, align 1
  store i8 %c, ptr %c.addr, align 1
  %0 = load i8, ptr %c.addr, align 1
  %conv = sext i8 %0 to i32
  %cmp = icmp sge i32 %conv, 48
  br i1 %cmp, label %land.lhs.true, label %lor.lhs.false

land.lhs.true:                                    ; preds = %entry
  %1 = load i8, ptr %c.addr, align 1
  %conv2 = sext i8 %1 to i32
  %cmp3 = icmp sle i32 %conv2, 57
  br i1 %cmp3, label %lor.end, label %lor.lhs.false

lor.lhs.false:                                    ; preds = %land.lhs.true, %entry
  %2 = load i8, ptr %c.addr, align 1
  %conv5 = sext i8 %2 to i32
  %cmp6 = icmp sge i32 %conv5, 97
  br i1 %cmp6, label %land.lhs.true8, label %lor.rhs

land.lhs.true8:                                   ; preds = %lor.lhs.false
  %3 = load i8, ptr %c.addr, align 1
  %conv9 = sext i8 %3 to i32
  %cmp10 = icmp sle i32 %conv9, 102
  br i1 %cmp10, label %lor.end, label %lor.rhs

lor.rhs:                                          ; preds = %land.lhs.true8, %lor.lhs.false
  %4 = load i8, ptr %c.addr, align 1
  %conv12 = sext i8 %4 to i32
  %cmp13 = icmp sge i32 %conv12, 65
  br i1 %cmp13, label %land.rhs, label %land.end

land.rhs:                                         ; preds = %lor.rhs
  %5 = load i8, ptr %c.addr, align 1
  %conv15 = sext i8 %5 to i32
  %cmp16 = icmp sle i32 %conv15, 70
  br label %land.end

land.end:                                         ; preds = %land.rhs, %lor.rhs
  %6 = phi i1 [ false, %lor.rhs ], [ %cmp16, %land.rhs ]
  br label %lor.end

lor.end:                                          ; preds = %land.end, %land.lhs.true8, %land.lhs.true
  %7 = phi i1 [ true, %land.lhs.true8 ], [ true, %land.lhs.true ], [ %6, %land.end ]
  %lor.ext = zext i1 %7 to i32
  ret i32 %lor.ext
}