; Function Attrs: mustprogress nofree norecurse nosync nounwind willreturn memory(none) uwtable
define dso_local noundef i32 @is_hex_digit(i8 noundef signext %c) local_unnamed_addr #20 {
entry:
  %0 = add i8 %c, -48
  %or.cond = icmp ult i8 %0, 10
  %1 = and i8 %c, -33
  %2 = add i8 %1, -65
  %3 = icmp ult i8 %2, 6
  %narrow = or i1 %or.cond, %3
  %lor.ext = zext i1 %narrow to i32
  ret i32 %lor.ext
}